target datalayout = "e-m:e-p270:32:32-p271:32:32-p272:64:64-i64:64-i128:128-f80:128-n8:16:32:64-S128"
target triple = "x86_64-pc-linux-gnu"

%"struct.ozz::math::Float3" = type { float, float, float }

; Function Attrs: alwaysinline mustprogress nounwind uwtable
define linkonce_odr dso_local void @_ZN3ozz4math6Float3C2Efff(ptr noundef nonnull align 4 dereferenceable(12) %0, float noundef %1, float noundef %2, float noundef %3) unnamed_addr #10 comdat align 2 {
  %5 = alloca ptr, align 8
  %6 = alloca float, align 4
  %7 = alloca float, align 4
  %8 = alloca float, align 4
  store ptr %0, ptr %5, align 8, !tbaa !4
  store float %1, ptr %6, align 4, !tbaa !9
  store float %2, ptr %7, align 4, !tbaa !9
  store float %3, ptr %8, align 4, !tbaa !9
  %9 = load ptr, ptr %5, align 8
  %10 = getelementptr inbounds nuw %"struct.ozz::math::Float3", ptr %9, i32 0, i32 0
  %11 = load float, ptr %6, align 4, !tbaa !9
  store float %11, ptr %10, align 4, !tbaa !11
  %12 = getelementptr inbounds nuw %"struct.ozz::math::Float3", ptr %9, i32 0, i32 1
  %13 = load float, ptr %7, align 4, !tbaa !9
  store float %13, ptr %12, align 4, !tbaa !13
  %14 = getelementptr inbounds nuw %"struct.ozz::math::Float3", ptr %9, i32 0, i32 2
  %15 = load float, ptr %8, align 4, !tbaa !9
  store float %15, ptr %14, align 4, !tbaa !14
  ret void
}

; Function Attrs: alwaysinline mustprogress uwtable
define linkonce_odr dso_local { <2 x float>, float } @_ZN3ozz4math4LerpERKNS0_6Float3ES3_f(ptr noundef nonnull align 4 dereferenceable(12) %0, ptr noundef nonnull align 4 dereferenceable(12) %1, float noundef %2) #1 comdat {
  %4 = alloca %"struct.ozz::math::Float3", align 4
  %5 = alloca ptr, align 8
  %6 = alloca ptr, align 8
  %7 = alloca float, align 4
  %8 = alloca { <2 x float>, float }, align 8
  store ptr %0, ptr %5, align 8, !tbaa !4
  store ptr %1, ptr %6, align 8, !tbaa !4
  store float %2, ptr %7, align 4, !tbaa !9
  %9 = load ptr, ptr %6, align 8, !tbaa !4
  %10 = getelementptr inbounds nuw %"struct.ozz::math::Float3", ptr %9, i32 0, i32 0
  %11 = load float, ptr %10, align 4, !tbaa !11
  %12 = load ptr, ptr %5, align 8, !tbaa !4
  %13 = getelementptr inbounds nuw %"struct.ozz::math::Float3", ptr %12, i32 0, i32 0
  %14 = load float, ptr %13, align 4, !tbaa !11
  %15 = fsub float %11, %14
  %16 = load float, ptr %7, align 4, !tbaa !9
  %17 = load ptr, ptr %5, align 8, !tbaa !4
  %18 = getelementptr inbounds nuw %"struct.ozz::math::Float3", ptr %17, i32 0, i32 0
  %19 = load float, ptr %18, align 4, !tbaa !11
  %20 = call float @llvm.fmuladd.f32(float %15, float %16, float %19)
  %21 = load ptr, ptr %6, align 8, !tbaa !4
  %22 = getelementptr inbounds nuw %"struct.ozz::math::Float3", ptr %21, i32 0, i32 1
  %23 = load float, ptr %22, align 4, !tbaa !13
  %24 = load ptr, ptr %5, align 8, !tbaa !4
  %25 = getelementptr inbounds nuw %"struct.ozz::math::Float3", ptr %24, i32 0, i32 1
  %26 = load float, ptr %25, align 4, !tbaa !13
  %27 = fsub float %23, %26
  %28 = load float, ptr %7, align 4, !tbaa !9
  %29 = load ptr, ptr %5, align 8, !tbaa !4
  %30 = getelementptr inbounds nuw %"struct.ozz::math::Float3", ptr %29, i32 0, i32 1
  %31 = load float, ptr %30, align 4, !tbaa !13
  %32 = call float @llvm.fmuladd.f32(float %27, float %28, float %31)
  %33 = load ptr, ptr %6, align 8, !tbaa !4
  %34 = getelementptr inbounds nuw %"struct.ozz::math::Float3", ptr %33, i32 0, i32 2
  %35 = load float, ptr %34, align 4, !tbaa !14
  %36 = load ptr, ptr %5, align 8, !tbaa !4
  %37 = getelementptr inbounds nuw %"struct.ozz::math::Float3", ptr %36, i32 0, i32 2
  %38 = load float, ptr %37, align 4, !tbaa !14
  %39 = fsub float %35, %38
  %40 = load float, ptr %7, align 4, !tbaa !9
  %41 = load ptr, ptr %5, align 8, !tbaa !4
  %42 = getelementptr inbounds nuw %"struct.ozz::math::Float3", ptr %41, i32 0, i32 2
  %43 = load float, ptr %42, align 4, !tbaa !14
  %44 = call float @llvm.fmuladd.f32(float %39, float %40, float %43)
  call void @_ZN3ozz4math6Float3C2Efff(ptr noundef nonnull align 4 dereferenceable(12) %4, float noundef %20, float noundef %32, float noundef %44)
  call void @llvm.memcpy.p0.p0.i64(ptr align 8 %8, ptr align 4 %4, i64 12, i1 false)
  %45 = load { <2 x float>, float }, ptr %8, align 8
  ret { <2 x float>, float } %45
}

; Function Attrs: mustprogress uwtable
define dso_local { <2 x float>, float } @_ZN3ozz9animation7offline9LerpScaleERKNS_4math6Float3ES5_f(ptr noundef nonnull align 4 dereferenceable(12) %0, ptr noundef nonnull align 4 dereferenceable(12) %1, float noundef %2) #0 {
  %4 = alloca %"struct.ozz::math::Float3", align 4
  %5 = alloca ptr, align 8
  %6 = alloca ptr, align 8
  %7 = alloca float, align 4
  %8 = alloca { <2 x float>, float }, align 8
  %9 = alloca { <2 x float>, float }, align 8
  store ptr %0, ptr %5, align 8, !tbaa !4
  store ptr %1, ptr %6, align 8, !tbaa !4
  store float %2, ptr %7, align 4, !tbaa !9
  %10 = load ptr, ptr %5, align 8, !tbaa !4
  %11 = load ptr, ptr %6, align 8, !tbaa !4
  %12 = load float, ptr %7, align 4, !tbaa !9
  %13 = call { <2 x float>, float } @_ZN3ozz4math4LerpERKNS0_6Float3ES3_f(ptr noundef nonnull align 4 dereferenceable(12) %10, ptr noundef nonnull align 4 dereferenceable(12) %11, float noundef %12)
  store { <2 x float>, float } %13, ptr %8, align 8
  call void @llvm.memcpy.p0.p0.i64(ptr align 4 %4, ptr align 8 %8, i64 12, i1 false)
  call void @llvm.memcpy.p0.p0.i64(ptr align 8 %9, ptr align 4 %4, i64 12, i1 false)
  %14 = load { <2 x float>, float }, ptr %9, align 8
  ret { <2 x float>, float } %14
}