; Function Attrs: mustprogress nofree norecurse nosync nounwind willreturn memory(argmem: read) uwtable
define dso_local { <2 x float>, float } @_ZN3ozz9animation7offline9LerpScaleERKNS_4math6Float3ES5_f(ptr noundef nonnull readonly align 4 captures(none) dereferenceable(12) %0, ptr noundef nonnull readonly align 4 captures(none) dereferenceable(12) %1, float noundef %2) local_unnamed_addr #0 {
  %4 = load float, ptr %1, align 4, !tbaa !4
  %5 = load float, ptr %0, align 4, !tbaa !4
  %6 = fsub float %4, %5
  %7 = tail call float @llvm.fmuladd.f32(float %6, float %2, float %5)
  %8 = getelementptr inbounds nuw i8, ptr %1, i64 4
  %9 = load float, ptr %8, align 4, !tbaa !9
  %10 = getelementptr inbounds nuw i8, ptr %0, i64 4
  %11 = load float, ptr %10, align 4, !tbaa !9
  %12 = fsub float %9, %11
  %13 = tail call float @llvm.fmuladd.f32(float %12, float %2, float %11)
  %14 = getelementptr inbounds nuw i8, ptr %1, i64 8
  %15 = load float, ptr %14, align 4, !tbaa !10
  %16 = getelementptr inbounds nuw i8, ptr %0, i64 8
  %17 = load float, ptr %16, align 4, !tbaa !10
  %18 = fsub float %15, %17
  %19 = tail call float @llvm.fmuladd.f32(float %18, float %2, float %17)
  %.sroa.0.0.vec.insert = insertelement <2 x float> poison, float %7, i64 0
  %.sroa.0.4.vec.insert = insertelement <2 x float> %.sroa.0.0.vec.insert, float %13, i64 1
  %.fca.0.insert.i = insertvalue { <2 x float>, float } poison, <2 x float> %.sroa.0.4.vec.insert, 0
  %.fca.1.insert.i = insertvalue { <2 x float>, float } %.fca.0.insert.i, float %19, 1
  ret { <2 x float>, float } %.fca.1.insert.i
}